; Function Attrs: mustprogress uwtable
define hidden noundef zeroext i1 @_ZN3smt10theory_seq16check_int_stringEv(ptr noundef nonnull align 8 dereferenceable(4328) %this) local_unnamed_addr #3 align 2 {
entry:
  %m_nodes.i = getelementptr inbounds i8, ptr %this, i64 1048
  %0 = load ptr, ptr %m_nodes.i, align 8
  %cmp.i.i.i = icmp eq ptr %0, null
  br i1 %cmp.i.i.i, label %for.end, label %_ZNK15ref_vector_coreI4expr19ref_manager_wrapperIS0_11ast_managerEE3endEv.exit

_ZNK15ref_vector_coreI4expr19ref_manager_wrapperIS0_11ast_managerEE3endEv.exit: ; preds = %entry
  %arrayidx.i.i.i = getelementptr inbounds i8, ptr %0, i64 -4
  %1 = load i32, ptr %arrayidx.i.i.i, align 4
  %2 = zext i32 %1 to i64
  %add.ptr.i = getelementptr inbounds ptr, ptr %0, i64 %2
  %cmp.not4 = icmp eq i32 %1, 0
  br i1 %cmp.not4, label %for.end, label %for.body

for.body:                                         ; preds = %_ZNK15ref_vector_coreI4expr19ref_manager_wrapperIS0_11ast_managerEE3endEv.exit, %for.body
  %change.06 = phi i8 [ %spec.select, %for.body ], [ 0, %_ZNK15ref_vector_coreI4expr19ref_manager_wrapperIS0_11ast_managerEE3endEv.exit ]
  %__begin1.05 = phi ptr [ %incdec.ptr, %for.body ], [ %0, %_ZNK15ref_vector_coreI4expr19ref_manager_wrapperIS0_11ast_managerEE3endEv.exit ]
  %3 = load ptr, ptr %__begin1.05, align 8
  %call3 = tail call noundef zeroext i1 @_ZN3smt10theory_seq16check_int_stringEP4expr(ptr noundef nonnull align 8 dereferenceable(4328) %this, ptr noundef %3)
  %spec.select = select i1 %call3, i8 1, i8 %change.06
  %incdec.ptr = getelementptr inbounds i8, ptr %__begin1.05, i64 8
  %cmp.not = icmp eq ptr %incdec.ptr, %add.ptr.i
  br i1 %cmp.not, label %for.end.loopexit, label %for.body

for.end.loopexit:                                 ; preds = %for.body
  %4 = and i8 %spec.select, 1
  %5 = icmp ne i8 %4, 0
  br label %for.end

for.end:                                          ; preds = %entry, %for.end.loopexit, %_ZNK15ref_vector_coreI4expr19ref_manager_wrapperIS0_11ast_managerEE3endEv.exit
  %change.0.lcssa = phi i1 [ false, %_ZNK15ref_vector_coreI4expr19ref_manager_wrapperIS0_11ast_managerEE3endEv.exit ], [ %5, %for.end.loopexit ], [ false, %entry ]
  ret i1 %change.0.lcssa
}